Certificate:
    Data:
        Version: 3 (0x2)
        Serial Number:
            8c:03:af:46:f0:49:91:a8:c2:6e:a8:06:8e:30:4a:e1
    Signature Algorithm: sha256WithRSAEncryption
        Issuer: CN=ChangeMe
        Validity
            Not Before: Aug 26 07:04:03 2019 GMT
            Not After : Aug 23 07:04:03 2029 GMT
        Subject: CN=client1
        Subject Public Key Info:
            Public Key Algorithm: rsaEncryption
                Public-Key: (2048 bit)
                Modulus:
                    00:c3:9b:55:fe:df:21:46:2a:fd:24:48:f3:0c:1a:
                    b0:8f:55:09:8d:6c:76:38:f6:0f:65:77:3f:1b:ce:
                    9a:23:56:4d:92:c4:52:c8:a5:9c:94:e9:57:fb:ce:
                    ec:13:2a:bd:dd:8a:01:4b:ec:34:68:17:ff:ea:60:
                    04:95:0f:b6:aa:bb:cc:14:35:8c:ec:62:5d:e0:0b:
                    46:96:c0:fd:b1:37:1c:c0:d6:f0:fd:ed:2c:be:ae:
                    3a:e0:de:a8:8d:c8:54:84:1d:99:b0:a1:79:e2:a7:
                    b8:e0:9a:96:22:7c:5b:5e:27:53:9e:13:2c:a3:51:
                    ea:bb:58:d5:4c:83:5f:9c:59:d8:9f:f1:89:f5:81:
                    90:48:04:ee:aa:c2:fb:94:d5:30:9b:1d:33:c0:12:
                    31:a9:b7:3b:87:68:49:55:07:c5:15:0a:c6:59:5e:
                    8f:4c:1c:a1:86:20:8e:f9:26:38:8d:1f:c0:26:79:
                    05:2e:d2:41:66:04:0a:ef:a9:67:80:bc:16:89:05:
                    e1:e4:ea:d2:33:33:71:03:06:9a:e2:fe:11:32:af:
                    25:8b:33:4a:66:03:73:7c:e6:bd:2e:31:d7:9d:86:
                    1d:dc:36:3c:4e:3c:db:84:05:84:e3:7b:fa:61:54:
                    d4:10:a1:fe:16:17:db:01:6a:7c:b6:31:0f:13:9e:
                    ec:e1
                Exponent: 65537 (0x10001)
        X509v3 extensions:
            X509v3 Basic Constraints: 
                CA:FALSE
            X509v3 Subject Key Identifier: 
                D0:5E:1E:45:F4:AA:06:BC:F3:1A:A2:AE:BC:BC:7E:57:89:F6:B8:4F
            X509v3 Authority Key Identifier: 
                keyid:F7:7C:32:D1:E3:CF:23:C4:18:33:0C:B1:E2:A2:09:35:14:AC:42:3D
                DirName:/CN=ChangeMe
                serial:81:FD:EA:7A:29:B3:BE:B4

            X509v3 Extended Key Usage: 
                TLS Web Client Authentication
            X509v3 Key Usage: 
                Digital Signature
    Signature Algorithm: sha256WithRSAEncryption
         65:80:8e:ad:e4:4d:a9:67:7f:e3:7b:dc:44:fb:39:40:ae:b5:
         a2:61:1c:3d:bd:85:7a:69:5b:4b:9e:e6:1e:8b:07:ce:63:93:
         9d:2c:96:9e:b1:fa:0c:81:27:75:c8:5a:44:68:b1:05:81:c8:
         02:44:40:02:2c:a3:0c:cd:3e:b4:c5:cd:dc:a6:14:bc:08:59:
         87:a0:0e:ad:66:bd:48:dd:66:28:f8:28:5d:ba:76:fb:49:57:
         c2:fe:82:e4:b6:82:3d:c1:27:f2:ed:db:8e:00:b3:b1:8e:da:
         88:63:91:76:28:db:13:c7:a1:7b:4a:69:a5:fb:bb:b4:8f:ed:
         6d:18:d5:0f:0e:3f:6d:0f:96:35:e7:6d:bb:46:9e:4b:17:a1:
         96:c0:1b:f5:4d:88:cc:5f:a2:55:92:2a:4c:42:e8:fa:40:39:
         64:ea:33:39:e9:10:bf:5e:5b:d6:e1:92:30:d7:5f:73:f1:cf:
         47:63:5f:29:47:73:19:40:c2:56:d8:30:5e:88:55:fc:09:62:
         2c:2a:e5:6d:63:e1:9a:17:6b:5c:1e:dc:b5:fc:09:56:81:08:
         d6:f4:17:3c:1f:b7:a0:ad:3a:d4:77:87:81:81:1f:07:e0:a5:
         6f:81:cd:7f:85:f0:2b:70:c8:62:f8:4d:92:fe:72:dd:1b:db:
         28:2a:ef:f9
-----BEGIN CERTIFICATE-----
MIIDRTCCAi2gAwIBAgIRAIwDr0bwSZGowm6oBo4wSuEwDQYJKoZIhvcNAQELBQAw
EzERMA8GA1UEAwwIQ2hhbmdlTWUwHhcNMTkwODI2MDcwNDAzWhcNMjkwODIzMDcw
NDAzWjASMRAwDgYDVQQDDAdjbGllbnQxMIIBIjANBgkqhkiG9w0BAQEFAAOCAQ8A
MIIBCgKCAQEAw5tV/t8hRir9JEjzDBqwj1UJjWx2OPYPZXc/G86aI1ZNksRSyKWc
lOlX+87sEyq93YoBS+w0aBf/6mAElQ+2qrvMFDWM7GJd4AtGlsD9sTccwNbw/e0s
vq464N6ojchUhB2ZsKF54qe44JqWInxbXidTnhMso1Hqu1jVTINfnFnYn/GJ9YGQ
SATuqsL7lNUwmx0zwBIxqbc7h2hJVQfFFQrGWV6PTByhhiCO+SY4jR/AJnkFLtJB
ZgQK76lngLwWiQXh5OrSMzNxAwaa4v4RMq8lizNKZgNzfOa9LjHXnYYd3DY8Tjzb
hAWE43v6YVTUEKH+FhfbAWp8tjEPE57s4QIDAQABo4GUMIGRMAkGA1UdEwQCMAAw
HQYDVR0OBBYEFNBeHkX0qga88xqirry8fleJ9rhPMEMGA1UdIwQ8MDqAFPd8MtHj
zyPEGDMMseKiCTUUrEI9oRekFTATMREwDwYDVQQDDAhDaGFuZ2VNZYIJAIH96nop
s760MBMGA1UdJQQMMAoGCCsGAQUFBwMCMAsGA1UdDwQEAwIHgDANBgkqhkiG9w0B
AQsFAAOCAQEAZYCOreRNqWd/43vcRPs5QK61omEcPb2FemlbS57mHosHzmOTnSyW
nrH6DIEndchaRGixBYHIAkRAAiyjDM0+tMXN3KYUvAhZh6AOrWa9SN1mKPgoXbp2
+0lXwv6C5LaCPcEn8u3bjgCzsY7aiGORdijbE8ehe0pppfu7tI/tbRjVDw4/bQ+W
Nedtu0aeSxehlsAb9U2IzF+iVZIqTELo+kA5ZOozOekQv15b1uGSMNdfc/HPR2Nf
KUdzGUDCVtgwXohV/AliLCrlbWPhmhdrXB7ctfwJVoEI1vQXPB+3oK061HeHgYEf
B+Clb4HNf4XwK3DIYvhNkv5y3RvbKCrv+Q==
-----END CERTIFICATE-----
