Certificate:
    Data:
        Version: 3 (0x2)
        Serial Number:
            56:a0:00:da:60:3e:c1:73:cf:23:21:d4:3e:49:7b:dc
    Signature Algorithm: sha256WithRSAEncryption
        Issuer: CN=rasvpn
        Validity
            Not Before: Aug 24 15:34:31 2019 GMT
            Not After : Aug 21 15:34:31 2029 GMT
        Subject: CN=client
        Subject Public Key Info:
            Public Key Algorithm: rsaEncryption
                Public-Key: (2048 bit)
                Modulus:
                    00:e1:18:2e:38:d6:47:ce:95:58:cb:4c:56:bf:81:
                    65:fa:08:81:fe:56:4f:cf:92:d8:bd:30:c9:a6:b8:
                    1c:e8:77:8c:91:06:36:5d:73:42:be:a8:f1:59:e8:
                    68:a6:f5:c8:31:d7:10:8b:44:10:21:31:0f:8a:d6:
                    22:4c:33:07:83:a0:37:4c:07:4e:43:6e:c4:44:9a:
                    68:4b:b2:c3:f3:bb:50:20:7c:d4:5a:4d:60:77:1b:
                    e1:7f:2d:34:f1:9c:f4:84:2b:6c:c6:0b:74:46:04:
                    86:49:b6:ef:bf:15:49:f9:82:1e:ca:4d:e4:21:c6:
                    52:df:1b:5e:dc:84:18:9b:5c:63:54:3a:8c:04:e8:
                    fc:83:36:8c:65:9a:40:fb:8d:96:24:f3:fa:ea:27:
                    7e:c1:7c:a0:e8:d0:c8:01:c5:81:c5:ff:f7:65:78:
                    cc:1c:d9:0b:3c:87:f2:eb:46:b8:e3:ad:f4:bd:1a:
                    64:73:85:04:37:a1:23:79:f5:15:7e:9d:59:1c:73:
                    d6:43:12:7c:13:de:30:d2:93:31:ca:03:45:dc:f7:
                    24:eb:91:64:5e:34:5b:ef:63:3f:35:15:59:2a:7e:
                    67:fe:0d:98:1c:43:5b:67:cc:7a:2c:cd:36:58:9c:
                    bc:0f:c0:e7:c6:63:35:26:b8:0d:f3:c2:43:2c:76:
                    49:d5
                Exponent: 65537 (0x10001)
        X509v3 extensions:
            X509v3 Basic Constraints: 
                CA:FALSE
            X509v3 Subject Key Identifier: 
                38:FD:CE:B6:38:FC:D3:D7:3A:B4:C0:7E:64:9D:EF:38:A0:4F:08:BD
            X509v3 Authority Key Identifier: 
                keyid:26:9A:E7:D0:56:DD:21:CC:84:6D:E6:D9:96:7C:DD:52:ED:54:DA:68
                DirName:/CN=rasvpn
                serial:DD:E3:F0:81:1D:3F:F3:AD

            X509v3 Extended Key Usage: 
                TLS Web Client Authentication
            X509v3 Key Usage: 
                Digital Signature
    Signature Algorithm: sha256WithRSAEncryption
         24:87:6e:3e:56:e8:57:d5:fb:cf:2e:e5:0f:ef:56:99:c9:70:
         31:f1:df:24:3c:d8:27:a0:e9:65:d6:15:19:9e:7d:e8:09:00:
         7e:6b:e5:3d:9d:02:00:a7:7e:94:b1:4e:9a:71:94:9d:37:77:
         cb:fa:6b:d5:5c:5a:b9:26:bf:7c:6b:8b:b9:b1:a5:bd:66:a7:
         55:ae:fa:5a:b2:6d:91:e7:ed:dd:cb:10:ff:3d:39:b2:6a:6e:
         c8:71:6b:17:21:b7:44:20:df:c5:cb:7a:86:0d:c3:cb:49:6f:
         8e:23:03:a9:4a:78:64:73:f0:f0:a4:16:c3:ff:e8:fc:dd:44:
         0b:08:8c:81:56:57:e3:40:73:31:a6:3f:69:b4:cb:a0:be:72:
         fc:57:ef:05:2c:ed:1b:97:34:7e:12:24:d2:c0:23:ac:aa:ae:
         58:54:95:4a:4c:d1:90:55:26:d2:4c:56:3d:27:be:3a:1f:49:
         d3:7f:59:d7:9d:96:e3:8b:a5:43:f3:44:c7:0a:bc:87:a8:47:
         b4:06:b4:9e:e4:4e:41:5b:49:66:2e:7b:56:38:5f:b4:ba:4f:
         97:95:0e:5f:e0:0c:7c:f5:c9:c4:86:41:4a:1a:8e:30:ea:7f:
         ae:33:7d:7b:dc:b5:15:c8:5a:dd:62:97:ae:69:74:e7:fc:b0:
         25:7d:ea:b2
-----BEGIN CERTIFICATE-----
MIIDPzCCAiegAwIBAgIQVqAA2mA+wXPPIyHUPkl73DANBgkqhkiG9w0BAQsFADAR
MQ8wDQYDVQQDDAZyYXN2cG4wHhcNMTkwODI0MTUzNDMxWhcNMjkwODIxMTUzNDMx
WjARMQ8wDQYDVQQDDAZjbGllbnQwggEiMA0GCSqGSIb3DQEBAQUAA4IBDwAwggEK
AoIBAQDhGC441kfOlVjLTFa/gWX6CIH+Vk/Pkti9MMmmuBzod4yRBjZdc0K+qPFZ
6Gim9cgx1xCLRBAhMQ+K1iJMMweDoDdMB05DbsREmmhLssPzu1AgfNRaTWB3G+F/
LTTxnPSEK2zGC3RGBIZJtu+/FUn5gh7KTeQhxlLfG17chBibXGNUOowE6PyDNoxl
mkD7jZYk8/rqJ37BfKDo0MgBxYHF//dleMwc2Qs8h/LrRrjjrfS9GmRzhQQ3oSN5
9RV+nVkcc9ZDEnwT3jDSkzHKA0Xc9yTrkWReNFvvYz81FVkqfmf+DZgcQ1tnzHos
zTZYnLwPwOfGYzUmuA3zwkMsdknVAgMBAAGjgZIwgY8wCQYDVR0TBAIwADAdBgNV
HQ4EFgQUOP3Otjj809c6tMB+ZJ3vOKBPCL0wQQYDVR0jBDowOIAUJprn0FbdIcyE
bebZlnzdUu1U2mihFaQTMBExDzANBgNVBAMMBnJhc3ZwboIJAN3j8IEdP/OtMBMG
A1UdJQQMMAoGCCsGAQUFBwMCMAsGA1UdDwQEAwIHgDANBgkqhkiG9w0BAQsFAAOC
AQEAJIduPlboV9X7zy7lD+9WmclwMfHfJDzYJ6DpZdYVGZ596AkAfmvlPZ0CAKd+
lLFOmnGUnTd3y/pr1VxauSa/fGuLubGlvWanVa76WrJtkeft3csQ/z05smpuyHFr
FyG3RCDfxct6hg3Dy0lvjiMDqUp4ZHPw8KQWw//o/N1ECwiMgVZX40BzMaY/abTL
oL5y/FfvBSztG5c0fhIk0sAjrKquWFSVSkzRkFUm0kxWPSe+Oh9J039Z152W44ul
Q/NExwq8h6hHtAa0nuROQVtJZi57VjhftLpPl5UOX+AMfPXJxIZBShqOMOp/rjN9
e9y1Fcha3WKXrml05/ywJX3qsg==
-----END CERTIFICATE-----